; Function Attrs: mustprogress nounwind uwtable
define void @_ZN32pxrInternal_v0_24__pxrReserved__10UsdZipFile8IteratorD2Ev(ptr nocapture noundef nonnull align 8 dereferenceable(8) %0) unnamed_addr #2 align 2 {
  %2 = load ptr, ptr %0, align 8
  %.not.i = icmp eq ptr %2, null
  br i1 %.not.i, label %_ZNSt10unique_ptrIN32pxrInternal_v0_24__pxrReserved__10UsdZipFile8Iterator13_IteratorDataESt14default_deleteIS3_EED2Ev.exit, label %_ZNKSt14default_deleteIN32pxrInternal_v0_24__pxrReserved__10UsdZipFile8Iterator13_IteratorDataEEclEPS3_.exit.i

_ZNKSt14default_deleteIN32pxrInternal_v0_24__pxrReserved__10UsdZipFile8Iterator13_IteratorDataEEclEPS3_.exit.i: ; preds = %1
  tail call void @_ZdlPvm(ptr noundef nonnull %2, i64 noundef 80) #23
  br label %_ZNSt10unique_ptrIN32pxrInternal_v0_24__pxrReserved__10UsdZipFile8Iterator13_IteratorDataESt14default_deleteIS3_EED2Ev.exit

_ZNSt10unique_ptrIN32pxrInternal_v0_24__pxrReserved__10UsdZipFile8Iterator13_IteratorDataESt14default_deleteIS3_EED2Ev.exit: ; preds = %1, %_ZNKSt14default_deleteIN32pxrInternal_v0_24__pxrReserved__10UsdZipFile8Iterator13_IteratorDataEEclEPS3_.exit.i
  store ptr null, ptr %0, align 8
  ret void
}